; Function Attrs: mustprogress nofree norecurse nosync nounwind willreturn memory(argmem: read) uwtable
define noundef zeroext i1 @_ZN13MarchingCubes8HasRootsEPKdd(ptr noundef readonly captures(none) %0, double noundef %1) local_unnamed_addr #2 align 2 {
  %3 = load double, ptr %0, align 8
  %4 = fcmp olt double %3, %1
  %.0.i = zext i1 %4 to i8
  %5 = getelementptr inbounds nuw i8, ptr %0, i64 8
  %6 = load double, ptr %5, align 8
  %7 = fcmp olt double %6, %1
  %8 = or disjoint i8 %.0.i, 2
  %.1.i = select i1 %7, i8 %8, i8 %.0.i
  %9 = getelementptr inbounds nuw i8, ptr %0, i64 24
  %10 = load double, ptr %9, align 8
  %11 = fcmp olt double %10, %1
  %12 = or disjoint i8 %.1.i, 4
  %.2.i = select i1 %11, i8 %12, i8 %.1.i
  %13 = getelementptr inbounds nuw i8, ptr %0, i64 16
  %14 = load double, ptr %13, align 8
  %15 = fcmp olt double %14, %1
  %16 = or disjoint i8 %.2.i, 8
  %.3.i = select i1 %15, i8 %16, i8 %.2.i
  %17 = getelementptr inbounds nuw i8, ptr %0, i64 32
  %18 = load double, ptr %17, align 8
  %19 = fcmp olt double %18, %1
  %20 = or i8 %.3.i, 16
  %.4.i = select i1 %19, i8 %20, i8 %.3.i
  %21 = getelementptr inbounds nuw i8, ptr %0, i64 40
  %22 = load double, ptr %21, align 8
  %23 = fcmp olt double %22, %1
  %24 = or i8 %.4.i, 32
  %.5.i = select i1 %23, i8 %24, i8 %.4.i
  %25 = getelementptr inbounds nuw i8, ptr %0, i64 56
  %26 = load double, ptr %25, align 8
  %27 = fcmp olt double %26, %1
  %28 = or i8 %.5.i, 64
  %.6.i = select i1 %27, i8 %28, i8 %.5.i
  %29 = getelementptr inbounds nuw i8, ptr %0, i64 48
  %30 = load double, ptr %29, align 8
  %31 = fcmp olt double %30, %1
  %32 = or i8 %.6.i, -128
  %.7.i = select i1 %31, i8 %32, i8 %.6.i
  %33 = add i8 %.7.i, -1
  %34 = icmp ult i8 %33, -2
  ret i1 %34
}